target datalayout = "e-m:e-p270:32:32-p271:32:32-p272:64:64-i64:64-i128:128-f80:128-n8:16:32:64-S128"
target triple = "x86_64-pc-linux-gnu"

%struct.FLAC__StreamMetadata = type { i32, i32, i32, %union.anon }
%union.anon = type { %struct.FLAC__StreamMetadata_CueSheet }
%struct.FLAC__StreamMetadata_CueSheet = type { [129 x i8], i64, i32, i32, ptr }
%struct.FLAC__StreamMetadata_VorbisComment = type { %struct.FLAC__StreamMetadata_VorbisComment_Entry, i32, ptr }
%struct.FLAC__StreamMetadata_VorbisComment_Entry = type { i32, ptr }

; Function Attrs: alwaysinline nounwind
define internal ptr @memmove.inline(ptr nonnull %0, ptr nonnull %1, i64 %2) #5 {
  %4 = alloca ptr, align 8
  %5 = alloca ptr, align 8
  %6 = alloca i64, align 8
  store ptr %0, ptr %4, align 8, !tbaa !27
  store ptr %1, ptr %5, align 8, !tbaa !27
  store i64 %2, ptr %6, align 8, !tbaa !28
  %7 = load ptr, ptr %4, align 8, !tbaa !27
  %8 = load ptr, ptr %5, align 8, !tbaa !27
  %9 = load i64, ptr %6, align 8, !tbaa !28
  %10 = load ptr, ptr %4, align 8, !tbaa !27
  %11 = call i64 @llvm.objectsize.i64.p0(ptr %10, i1 false, i1 true, i1 false)
  %12 = call ptr @__memmove_chk(ptr noundef %7, ptr noundef %8, i64 noundef %9, i64 noundef %11) #12
  ret ptr %12
}

; Function Attrs: nounwind sspstrong uwtable
define i32 @FLAC__metadata_object_vorbiscomment_delete_comment(ptr noundef %0, i32 noundef %1) #0 {
  %3 = alloca ptr, align 8
  %4 = alloca i32, align 4
  %5 = alloca ptr, align 8
  store ptr %0, ptr %3, align 8, !tbaa !7
  store i32 %1, ptr %4, align 4, !tbaa !3
  call void @llvm.lifetime.start.p0(i64 8, ptr %5) #12
  %6 = load ptr, ptr %3, align 8, !tbaa !7
  %7 = getelementptr inbounds nuw %struct.FLAC__StreamMetadata, ptr %6, i32 0, i32 3
  store ptr %7, ptr %5, align 8, !tbaa !27
  %8 = load ptr, ptr %5, align 8, !tbaa !27
  %9 = getelementptr inbounds nuw %struct.FLAC__StreamMetadata_VorbisComment, ptr %8, i32 0, i32 2
  %10 = load ptr, ptr %9, align 8, !tbaa !58
  %11 = load i32, ptr %4, align 4, !tbaa !3
  %12 = zext i32 %11 to i64
  %13 = getelementptr inbounds nuw %struct.FLAC__StreamMetadata_VorbisComment_Entry, ptr %10, i64 %12
  %14 = getelementptr inbounds nuw %struct.FLAC__StreamMetadata_VorbisComment_Entry, ptr %13, i32 0, i32 1
  %15 = load ptr, ptr %14, align 8, !tbaa !29
  call void @free(ptr noundef %15) #12
  %16 = load ptr, ptr %5, align 8, !tbaa !27
  %17 = getelementptr inbounds nuw %struct.FLAC__StreamMetadata_VorbisComment, ptr %16, i32 0, i32 2
  %18 = load ptr, ptr %17, align 8, !tbaa !58
  %19 = load i32, ptr %4, align 4, !tbaa !3
  %20 = zext i32 %19 to i64
  %21 = getelementptr inbounds nuw %struct.FLAC__StreamMetadata_VorbisComment_Entry, ptr %18, i64 %20
  %22 = load ptr, ptr %5, align 8, !tbaa !27
  %23 = getelementptr inbounds nuw %struct.FLAC__StreamMetadata_VorbisComment, ptr %22, i32 0, i32 2
  %24 = load ptr, ptr %23, align 8, !tbaa !58
  %25 = load i32, ptr %4, align 4, !tbaa !3
  %26 = add i32 %25, 1
  %27 = zext i32 %26 to i64
  %28 = getelementptr inbounds nuw %struct.FLAC__StreamMetadata_VorbisComment_Entry, ptr %24, i64 %27
  %29 = load ptr, ptr %5, align 8, !tbaa !27
  %30 = getelementptr inbounds nuw %struct.FLAC__StreamMetadata_VorbisComment, ptr %29, i32 0, i32 1
  %31 = load i32, ptr %30, align 8, !tbaa !57
  %32 = load i32, ptr %4, align 4, !tbaa !3
  %33 = sub i32 %31, %32
  %34 = sub i32 %33, 1
  %35 = zext i32 %34 to i64
  %36 = mul i64 16, %35
  %37 = call ptr @memmove.inline(ptr noundef %21, ptr noundef %28, i64 noundef %36) #12
  %38 = load ptr, ptr %5, align 8, !tbaa !27
  %39 = getelementptr inbounds nuw %struct.FLAC__StreamMetadata_VorbisComment, ptr %38, i32 0, i32 2
  %40 = load ptr, ptr %39, align 8, !tbaa !58
  %41 = load ptr, ptr %5, align 8, !tbaa !27
  %42 = getelementptr inbounds nuw %struct.FLAC__StreamMetadata_VorbisComment, ptr %41, i32 0, i32 1
  %43 = load i32, ptr %42, align 8, !tbaa !57
  %44 = sub i32 %43, 1
  %45 = zext i32 %44 to i64
  %46 = getelementptr inbounds nuw %struct.FLAC__StreamMetadata_VorbisComment_Entry, ptr %40, i64 %45
  %47 = getelementptr inbounds nuw %struct.FLAC__StreamMetadata_VorbisComment_Entry, ptr %46, i32 0, i32 0
  store i32 0, ptr %47, align 8, !tbaa !19
  %48 = load ptr, ptr %5, align 8, !tbaa !27
  %49 = getelementptr inbounds nuw %struct.FLAC__StreamMetadata_VorbisComment, ptr %48, i32 0, i32 2
  %50 = load ptr, ptr %49, align 8, !tbaa !58
  %51 = load ptr, ptr %5, align 8, !tbaa !27
  %52 = getelementptr inbounds nuw %struct.FLAC__StreamMetadata_VorbisComment, ptr %51, i32 0, i32 1
  %53 = load i32, ptr %52, align 8, !tbaa !57
  %54 = sub i32 %53, 1
  %55 = zext i32 %54 to i64
  %56 = getelementptr inbounds nuw %struct.FLAC__StreamMetadata_VorbisComment_Entry, ptr %50, i64 %55
  %57 = getelementptr inbounds nuw %struct.FLAC__StreamMetadata_VorbisComment_Entry, ptr %56, i32 0, i32 1
  store ptr null, ptr %57, align 8, !tbaa !29
  %58 = load ptr, ptr %3, align 8, !tbaa !7
  %59 = load ptr, ptr %5, align 8, !tbaa !27
  %60 = getelementptr inbounds nuw %struct.FLAC__StreamMetadata_VorbisComment, ptr %59, i32 0, i32 1
  %61 = load i32, ptr %60, align 8, !tbaa !57
  %62 = sub i32 %61, 1
  %63 = call i32 @FLAC__metadata_object_vorbiscomment_resize_comments(ptr noundef %58, i32 noundef %62)
  call void @llvm.lifetime.end.p0(i64 8, ptr %5) #12
  ret i32 %63
}