; Function Attrs: nounwind sspstrong uwtable
define range(i32 0, 2) i32 @FLAC__metadata_object_vorbiscomment_delete_comment(ptr noundef captures(none) %0, i32 noundef %1) local_unnamed_addr #0 {
  %3 = getelementptr inbounds nuw i8, ptr %0, i64 40
  %4 = load ptr, ptr %3, align 8, !tbaa !52
  %5 = zext i32 %1 to i64
  %6 = getelementptr inbounds nuw %struct.FLAC__StreamMetadata_VorbisComment_Entry, ptr %4, i64 %5, i32 1
  %7 = load ptr, ptr %6, align 8, !tbaa !17
  tail call void @free(ptr noundef %7) #31
  %8 = load ptr, ptr %3, align 8, !tbaa !52
  %9 = getelementptr inbounds nuw %struct.FLAC__StreamMetadata_VorbisComment_Entry, ptr %8, i64 %5
  %10 = add i32 %1, 1
  %11 = zext i32 %10 to i64
  %12 = getelementptr inbounds nuw %struct.FLAC__StreamMetadata_VorbisComment_Entry, ptr %8, i64 %11
  %13 = getelementptr inbounds nuw i8, ptr %0, i64 32
  %14 = load i32, ptr %13, align 8, !tbaa !51
  %15 = xor i32 %1, -1
  %16 = add i32 %14, %15
  %17 = zext i32 %16 to i64
  %18 = shl nuw nsw i64 %17, 4
  tail call void @llvm.memmove.p0.p0.i64(ptr noundef nonnull align 1 %9, ptr noundef nonnull align 1 %12, i64 noundef range(i64 0, 137438953441) %18, i1 noundef false) #31
  %19 = load ptr, ptr %3, align 8, !tbaa !52
  %20 = load i32, ptr %13, align 8, !tbaa !51
  %21 = add i32 %20, -1
  %22 = zext i32 %21 to i64
  %23 = getelementptr inbounds nuw %struct.FLAC__StreamMetadata_VorbisComment_Entry, ptr %19, i64 %22
  store i32 0, ptr %23, align 8, !tbaa !15
  %24 = getelementptr inbounds nuw %struct.FLAC__StreamMetadata_VorbisComment_Entry, ptr %19, i64 %22, i32 1
  store ptr null, ptr %24, align 8, !tbaa !17
  %25 = tail call i32 @FLAC__metadata_object_vorbiscomment_resize_comments(ptr noundef %0, i32 noundef %21)
  ret i32 %25
}